target datalayout = "e-m:e-p270:32:32-p271:32:32-p272:64:64-i64:64-i128:128-f80:128-n8:16:32:64-S128"
target triple = "x86_64-pc-linux-gnu"

%struct.XLogReaderState = type { %struct.XLogReaderRoutine, i64, ptr, i64, i64, i64, i64, i64, i64, i64, i64, ptr, ptr, i64, i8, ptr, ptr, ptr, ptr, ptr, i32, %struct.WALSegmentContext, %struct.WALOpenSegment, i32, i64, i32, i64, i32, i64, i32, ptr, i32, ptr, i8, i8 }
%struct.XLogReaderRoutine = type { ptr, ptr, ptr }
%struct.WALSegmentContext = type { [1024 x i8], i32 }
%struct.WALOpenSegment = type { i32, i64, i32 }

@.str.1 = private unnamed_addr constant [12 x i8] c"xlogutils.c\00", align 1
@.str.7 = private unnamed_addr constant [42 x i8] c"switched to timeline %u valid until %X/%X\00", align 1
@__func__.XLogReadDetermineTimeline = private unnamed_addr constant [26 x i8] c"XLogReadDetermineTimeline\00", align 1

; Function Attrs: nounwind uwtable
define dso_local void @XLogReadDetermineTimeline(ptr noundef %0, i64 noundef %1, i32 noundef %2, i32 noundef %3) #0 {
  %5 = alloca ptr, align 8
  %6 = alloca i64, align 8
  %7 = alloca i32, align 4
  %8 = alloca i32, align 4
  %9 = alloca i64, align 8
  %10 = alloca i32, align 4
  %11 = alloca ptr, align 8
  %12 = alloca i64, align 8
  %13 = alloca i32, align 4
  store ptr %0, ptr %5, align 8
  store i64 %1, ptr %6, align 8
  store i32 %2, ptr %7, align 4
  store i32 %3, ptr %8, align 4
  call void @llvm.lifetime.start.p0(i64 8, ptr %9) #10
  %14 = load ptr, ptr %5, align 8
  %15 = getelementptr inbounds nuw %struct.XLogReaderState, ptr %14, i32 0, i32 22
  %16 = getelementptr inbounds nuw %struct.WALOpenSegment, ptr %15, i32 0, i32 1
  %17 = load i64, ptr %16, align 8
  %18 = load ptr, ptr %5, align 8
  %19 = getelementptr inbounds nuw %struct.XLogReaderState, ptr %18, i32 0, i32 21
  %20 = getelementptr inbounds nuw %struct.WALSegmentContext, ptr %19, i32 0, i32 1
  %21 = load i32, ptr %20, align 4
  %22 = sext i32 %21 to i64
  %23 = mul i64 %17, %22
  %24 = load ptr, ptr %5, align 8
  %25 = getelementptr inbounds nuw %struct.XLogReaderState, ptr %24, i32 0, i32 23
  %26 = load i32, ptr %25, align 8
  %27 = zext i32 %26 to i64
  %28 = add i64 %23, %27
  store i64 %28, ptr %9, align 8
  %29 = load i64, ptr %9, align 8
  %30 = load i64, ptr %6, align 8
  %31 = icmp eq i64 %29, %30
  br i1 %31, label %32, label %56

32:                                               ; preds = %4
  %33 = load ptr, ptr %5, align 8
  %34 = getelementptr inbounds nuw %struct.XLogReaderState, ptr %33, i32 0, i32 20
  %35 = load i32, ptr %34, align 8
  %36 = icmp ne i32 %35, 0
  br i1 %36, label %37, label %56

37:                                               ; preds = %32
  %38 = load i64, ptr %9, align 8
  %39 = load ptr, ptr %5, align 8
  %40 = getelementptr inbounds nuw %struct.XLogReaderState, ptr %39, i32 0, i32 20
  %41 = load i32, ptr %40, align 8
  %42 = zext i32 %41 to i64
  %43 = add i64 %38, %42
  %44 = load i64, ptr %6, align 8
  %45 = load i32, ptr %7, align 4
  %46 = icmp ult i32 %45, 8191
  br i1 %46, label %47, label %49

47:                                               ; preds = %37
  %48 = load i32, ptr %7, align 4
  br label %50

49:                                               ; preds = %37
  br label %50

50:                                               ; preds = %49, %47
  %51 = phi i32 [ %48, %47 ], [ 8191, %49 ]
  %52 = zext i32 %51 to i64
  %53 = add i64 %44, %52
  %54 = icmp uge i64 %43, %53
  br i1 %54, label %55, label %56

55:                                               ; preds = %50
  store i32 1, ptr %10, align 4
  br label %163

56:                                               ; preds = %50, %32, %4
  %57 = load ptr, ptr %5, align 8
  %58 = getelementptr inbounds nuw %struct.XLogReaderState, ptr %57, i32 0, i32 27
  %59 = load i32, ptr %58, align 8
  %60 = load i32, ptr %8, align 4
  %61 = icmp eq i32 %59, %60
  br i1 %61, label %62, label %67

62:                                               ; preds = %56
  %63 = load i64, ptr %6, align 8
  %64 = load i64, ptr %9, align 8
  %65 = icmp uge i64 %63, %64
  br i1 %65, label %66, label %67

66:                                               ; preds = %62
  store i32 1, ptr %10, align 4
  br label %163

67:                                               ; preds = %62, %56
  %68 = load ptr, ptr %5, align 8
  %69 = getelementptr inbounds nuw %struct.XLogReaderState, ptr %68, i32 0, i32 28
  %70 = load i64, ptr %69, align 8
  %71 = icmp ne i64 %70, 0
  br i1 %71, label %72, label %105

72:                                               ; preds = %67
  %73 = load ptr, ptr %5, align 8
  %74 = getelementptr inbounds nuw %struct.XLogReaderState, ptr %73, i32 0, i32 27
  %75 = load i32, ptr %74, align 8
  %76 = load i32, ptr %8, align 4
  %77 = icmp ne i32 %75, %76
  br i1 %77, label %78, label %105

78:                                               ; preds = %72
  %79 = load ptr, ptr %5, align 8
  %80 = getelementptr inbounds nuw %struct.XLogReaderState, ptr %79, i32 0, i32 27
  %81 = load i32, ptr %80, align 8
  %82 = icmp ne i32 %81, 0
  br i1 %82, label %83, label %105

83:                                               ; preds = %78
  %84 = load i64, ptr %6, align 8
  %85 = load i32, ptr %7, align 4
  %86 = zext i32 %85 to i64
  %87 = add i64 %84, %86
  %88 = load ptr, ptr %5, align 8
  %89 = getelementptr inbounds nuw %struct.XLogReaderState, ptr %88, i32 0, i32 21
  %90 = getelementptr inbounds nuw %struct.WALSegmentContext, ptr %89, i32 0, i32 1
  %91 = load i32, ptr %90, align 4
  %92 = sext i32 %91 to i64
  %93 = udiv i64 %87, %92
  %94 = load ptr, ptr %5, align 8
  %95 = getelementptr inbounds nuw %struct.XLogReaderState, ptr %94, i32 0, i32 28
  %96 = load i64, ptr %95, align 8
  %97 = load ptr, ptr %5, align 8
  %98 = getelementptr inbounds nuw %struct.XLogReaderState, ptr %97, i32 0, i32 21
  %99 = getelementptr inbounds nuw %struct.WALSegmentContext, ptr %98, i32 0, i32 1
  %100 = load i32, ptr %99, align 4
  %101 = sext i32 %100 to i64
  %102 = udiv i64 %96, %101
  %103 = icmp ult i64 %93, %102
  br i1 %103, label %104, label %105

104:                                              ; preds = %83
  store i32 1, ptr %10, align 4
  br label %163

105:                                              ; preds = %83, %78, %72, %67
  call void @llvm.lifetime.start.p0(i64 8, ptr %11) #10
  %106 = load i32, ptr %8, align 4
  %107 = call ptr @readTimeLineHistory(i32 noundef %106)
  store ptr %107, ptr %11, align 8
  call void @llvm.lifetime.start.p0(i64 8, ptr %12) #10
  %108 = load i64, ptr %6, align 8
  %109 = load ptr, ptr %5, align 8
  %110 = getelementptr inbounds nuw %struct.XLogReaderState, ptr %109, i32 0, i32 21
  %111 = getelementptr inbounds nuw %struct.WALSegmentContext, ptr %110, i32 0, i32 1
  %112 = load i32, ptr %111, align 4
  %113 = sext i32 %112 to i64
  %114 = udiv i64 %108, %113
  %115 = add i64 %114, 1
  %116 = load ptr, ptr %5, align 8
  %117 = getelementptr inbounds nuw %struct.XLogReaderState, ptr %116, i32 0, i32 21
  %118 = getelementptr inbounds nuw %struct.WALSegmentContext, ptr %117, i32 0, i32 1
  %119 = load i32, ptr %118, align 4
  %120 = sext i32 %119 to i64
  %121 = mul i64 %115, %120
  %122 = sub i64 %121, 1
  store i64 %122, ptr %12, align 8
  %123 = load i64, ptr %12, align 8
  %124 = load ptr, ptr %11, align 8
  %125 = call i32 @tliOfPointInHistory(i64 noundef %123, ptr noundef %124)
  %126 = load ptr, ptr %5, align 8
  %127 = getelementptr inbounds nuw %struct.XLogReaderState, ptr %126, i32 0, i32 27
  store i32 %125, ptr %127, align 8
  %128 = load ptr, ptr %5, align 8
  %129 = getelementptr inbounds nuw %struct.XLogReaderState, ptr %128, i32 0, i32 27
  %130 = load i32, ptr %129, align 8
  %131 = load ptr, ptr %11, align 8
  %132 = load ptr, ptr %5, align 8
  %133 = getelementptr inbounds nuw %struct.XLogReaderState, ptr %132, i32 0, i32 29
  %134 = call i64 @tliSwitchPoint(i32 noundef %130, ptr noundef %131, ptr noundef %133)
  %135 = load ptr, ptr %5, align 8
  %136 = getelementptr inbounds nuw %struct.XLogReaderState, ptr %135, i32 0, i32 28
  store i64 %134, ptr %136, align 8
  %137 = load ptr, ptr %11, align 8
  call void @list_free_deep(ptr noundef %137)
  br label %138

138:                                              ; preds = %105
  br i1 false, label %139, label %141

139:                                              ; preds = %138
  %140 = call zeroext i1 @errstart_cold(i32 noundef 12, ptr noundef null) #11
  br i1 %140, label %143, label %160

141:                                              ; preds = %138
  %142 = call zeroext i1 @errstart(i32 noundef 12, ptr noundef null)
  br i1 %142, label %143, label %160

143:                                              ; preds = %141, %139
  %144 = load ptr, ptr %5, align 8
  %145 = getelementptr inbounds nuw %struct.XLogReaderState, ptr %144, i32 0, i32 27
  %146 = load i32, ptr %145, align 8
  br label %147

147:                                              ; preds = %143
  br label %148

148:                                              ; preds = %147
  br label %149

149:                                              ; preds = %148
  store i32 1, ptr %13, align 4
  %150 = load ptr, ptr %5, align 8
  %151 = getelementptr inbounds nuw %struct.XLogReaderState, ptr %150, i32 0, i32 28
  %152 = load i64, ptr %151, align 8
  %153 = lshr i64 %152, 32
  %154 = trunc i64 %153 to i32
  %155 = load ptr, ptr %5, align 8
  %156 = getelementptr inbounds nuw %struct.XLogReaderState, ptr %155, i32 0, i32 28
  %157 = load i64, ptr %156, align 8
  %158 = trunc i64 %157 to i32
  %159 = call i32 (ptr, ...) @errmsg_internal(ptr noundef @.str.7, i32 noundef %146, i32 noundef %154, i32 noundef %158)
  call void @errfinish(ptr noundef @.str.1, i32 noundef 811, ptr noundef @__func__.XLogReadDetermineTimeline)
  br label %160

160:                                              ; preds = %149, %141, %139
  br label %161

161:                                              ; preds = %160
  br label %162

162:                                              ; preds = %161
  call void @llvm.lifetime.end.p0(i64 8, ptr %12) #10
  call void @llvm.lifetime.end.p0(i64 8, ptr %11) #10
  store i32 0, ptr %10, align 4
  br label %163

163:                                              ; preds = %162, %104, %66, %55
  call void @llvm.lifetime.end.p0(i64 8, ptr %9) #10
  %164 = load i32, ptr %10, align 4
  switch i32 %164, label %166 [
    i32 0, label %165
    i32 1, label %165
  ]

165:                                              ; preds = %163, %163
  ret void

166:                                              ; preds = %163
  unreachable
}