; Function Attrs: nounwind uwtable
define dso_local void @XLogReadDetermineTimeline(ptr noundef %0, i64 noundef %1, i32 noundef %2, i32 noundef %3) local_unnamed_addr #0 {
  %5 = getelementptr inbounds nuw i8, ptr %0, i64 1216
  %6 = load i64, ptr %5, align 8
  %7 = getelementptr inbounds nuw i8, ptr %0, i64 1204
  %8 = load i32, ptr %7, align 4
  %9 = sext i32 %8 to i64
  %10 = mul i64 %6, %9
  %11 = getelementptr inbounds nuw i8, ptr %0, i64 1232
  %12 = load i32, ptr %11, align 8
  %13 = zext i32 %12 to i64
  %14 = add i64 %10, %13
  %15 = icmp eq i64 %14, %1
  br i1 %15, label %16, label %25

16:                                               ; preds = %4
  %17 = getelementptr inbounds nuw i8, ptr %0, i64 176
  %18 = load i32, ptr %17, align 8
  %.not = icmp eq i32 %18, 0
  br i1 %.not, label %25, label %19

19:                                               ; preds = %16
  %20 = zext i32 %18 to i64
  %21 = add i64 %1, %20
  %22 = tail call i32 @llvm.umin.i32(i32 %2, i32 8191)
  %23 = zext nneg i32 %22 to i64
  %24 = add i64 %1, %23
  %.not42 = icmp ult i64 %21, %24
  br i1 %.not42, label %25, label %58

25:                                               ; preds = %19, %16, %4
  %26 = getelementptr inbounds nuw i8, ptr %0, i64 1264
  %27 = load i32, ptr %26, align 8
  %28 = icmp ne i32 %27, %3
  %.not43 = icmp ult i64 %1, %14
  %or.cond = or i1 %.not43, %28
  br i1 %or.cond, label %29, label %58

29:                                               ; preds = %25
  %30 = getelementptr inbounds nuw i8, ptr %0, i64 1272
  %31 = load i64, ptr %30, align 8
  %.not44 = icmp eq i64 %31, 0
  br i1 %.not44, label %39, label %32

32:                                               ; preds = %29
  %.not45 = icmp eq i32 %27, %3
  %.not46 = icmp eq i32 %27, 0
  %or.cond47 = or i1 %.not45, %.not46
  br i1 %or.cond47, label %39, label %33

33:                                               ; preds = %32
  %34 = zext i32 %2 to i64
  %35 = add i64 %1, %34
  %36 = udiv i64 %35, %9
  %37 = udiv i64 %31, %9
  %38 = icmp ult i64 %36, %37
  br i1 %38, label %58, label %39

39:                                               ; preds = %33, %32, %29
  %40 = tail call ptr @readTimeLineHistory(i32 noundef %3) #8
  %41 = load i32, ptr %7, align 4
  %42 = sext i32 %41 to i64
  %43 = udiv i64 %1, %42
  %44 = add i64 %43, 1
  %45 = mul i64 %44, %42
  %46 = add i64 %45, -1
  %47 = tail call i32 @tliOfPointInHistory(i64 noundef %46, ptr noundef %40) #8
  store i32 %47, ptr %26, align 8
  %48 = getelementptr inbounds nuw i8, ptr %0, i64 1280
  %49 = tail call i64 @tliSwitchPoint(i32 noundef %47, ptr noundef %40, ptr noundef nonnull %48) #8
  store i64 %49, ptr %30, align 8
  tail call void @list_free_deep(ptr noundef %40) #8
  %50 = tail call zeroext i1 @errstart(i32 noundef 12, ptr noundef null) #8
  br i1 %50, label %51, label %58

51:                                               ; preds = %39
  %52 = load i32, ptr %26, align 8
  %53 = load i64, ptr %30, align 8
  %54 = lshr i64 %53, 32
  %55 = trunc nuw i64 %54 to i32
  %56 = trunc i64 %53 to i32
  %57 = tail call i32 (ptr, ...) @errmsg_internal(ptr noundef nonnull @.str.7, i32 noundef %52, i32 noundef %55, i32 noundef %56) #8
  tail call void @errfinish(ptr noundef nonnull @.str.1, i32 noundef 811, ptr noundef nonnull @__func__.XLogReadDetermineTimeline) #8
  br label %58

58:                                               ; preds = %39, %51, %33, %25, %19
  ret void
}